; ModuleID = '58/72.c'
source_filename = "58/72.c"
target datalayout = "e-m:e-p270:32:32-p271:32:32-p272:64:64-i64:64-f80:128-n8:16:32:64-S128"
target triple = "x86_64-pc-linux-gnu"

@.str = private unnamed_addr constant [4 x i8] c"%d\0A\00", align 1

; Function Attrs: noinline nounwind uwtable
define dso_local void @main() #0 {
  %1 = alloca i32, align 4
  %2 = alloca [100 x [200 x i8]], align 16
  %3 = alloca i32, align 4
  %4 = alloca i8*, align 8
  %5 = alloca i32, align 4
  %6 = call i32 (i8*, ...) @__isoc99_scanf(i8* getelementptr inbounds ([4 x i8], [4 x i8]* @.str, i64 0, i64 0), i32* %1)
  store i32 0, i32* %3, align 4
  br label %7

7:                                                ; preds = %17, %0
  %8 = load i32, i32* %3, align 4
  %9 = load i32, i32* %1, align 4
  %10 = icmp slt i32 %8, %9
  br i1 %10, label %11, label %20

11:                                               ; preds = %7
  %12 = load i32, i32* %3, align 4
  %13 = sext i32 %12 to i64
  %14 = getelementptr inbounds [100 x [200 x i8]], [100 x [200 x i8]]* %2, i64 0, i64 %13
  %15 = getelementptr inbounds [200 x i8], [200 x i8]* %14, i64 0, i64 0
  %16 = call i32 (i8*, ...) bitcast (i32 (...)* @gets to i32 (i8*, ...)*)(i8* %15)
  br label %17

17:                                               ; preds = %11
  %18 = load i32, i32* %3, align 4
  %19 = add nsw i32 %18, 1
  store i32 %19, i32* %3, align 4
  br label %7

20:                                               ; preds = %7
  store i32 0, i32* %3, align 4
  br label %21

21:                                               ; preds = %113, %20
  %22 = load i32, i32* %3, align 4
  %23 = load i32, i32* %1, align 4
  %24 = icmp slt i32 %22, %23
  br i1 %24, label %25, label %116

25:                                               ; preds = %21
  store i32 1, i32* %5, align 4
  %26 = load i32, i32* %3, align 4
  %27 = sext i32 %26 to i64
  %28 = getelementptr inbounds [100 x [200 x i8]], [100 x [200 x i8]]* %2, i64 0, i64 %27
  %29 = getelementptr inbounds [200 x i8], [200 x i8]* %28, i64 0, i64 0
  store i8* %29, i8** %4, align 8
  %30 = load i8*, i8** %4, align 8
  %31 = load i8, i8* %30, align 1
  %32 = sext i8 %31 to i32
  %33 = icmp sle i32 65, %32
  br i1 %33, label %34, label %39

34:                                               ; preds = %25
  %35 = load i8*, i8** %4, align 8
  %36 = load i8, i8* %35, align 1
  %37 = sext i8 %36 to i32
  %38 = icmp sle i32 %37, 90
  br i1 %38, label %54, label %39

39:                                               ; preds = %34, %25
  %40 = load i8*, i8** %4, align 8
  %41 = load i8, i8* %40, align 1
  %42 = sext i8 %41 to i32
  %43 = icmp sle i32 97, %42
  br i1 %43, label %44, label %49

44:                                               ; preds = %39
  %45 = load i8*, i8** %4, align 8
  %46 = load i8, i8* %45, align 1
  %47 = sext i8 %46 to i32
  %48 = icmp sle i32 %47, 122
  br i1 %48, label %54, label %49

49:                                               ; preds = %44, %39
  %50 = load i8*, i8** %4, align 8
  %51 = load i8, i8* %50, align 1
  %52 = sext i8 %51 to i32
  %53 = icmp eq i32 %52, 95
  br i1 %53, label %54, label %109

54:                                               ; preds = %49, %44, %34
  %55 = load i8*, i8** %4, align 8
  %56 = getelementptr inbounds i8, i8* %55, i64 1
  store i8* %56, i8** %4, align 8
  br label %57

57:                                               ; preds = %105, %54
  %58 = load i8*, i8** %4, align 8
  %59 = load i8, i8* %58, align 1
  %60 = sext i8 %59 to i32
  %61 = icmp ne i32 %60, 0
  br i1 %61, label %62, label %65

62:                                               ; preds = %57
  %63 = load i32, i32* %5, align 4
  %64 = icmp eq i32 %63, 1
  br label %65

65:                                               ; preds = %62, %57
  %66 = phi i1 [ false, %57 ], [ %64, %62 ]
  br i1 %66, label %67, label %108

67:                                               ; preds = %65
  %68 = load i8*, i8** %4, align 8
  %69 = load i8, i8* %68, align 1
  %70 = sext i8 %69 to i32
  %71 = icmp sle i32 65, %70
  br i1 %71, label %72, label %77

72:                                               ; preds = %67
  %73 = load i8*, i8** %4, align 8
  %74 = load i8, i8* %73, align 1
  %75 = sext i8 %74 to i32
  %76 = icmp sle i32 %75, 90
  br i1 %76, label %102, label %77

77:                                               ; preds = %72, %67
  %78 = load i8*, i8** %4, align 8
  %79 = load i8, i8* %78, align 1
  %80 = sext i8 %79 to i32
  %81 = icmp sle i32 97, %80
  br i1 %81, label %82, label %87

82:                                               ; preds = %77
  %83 = load i8*, i8** %4, align 8
  %84 = load i8, i8* %83, align 1
  %85 = sext i8 %84 to i32
  %86 = icmp sle i32 %85, 122
  br i1 %86, label %102, label %87

87:                                               ; preds = %82, %77
  %88 = load i8*, i8** %4, align 8
  %89 = load i8, i8* %88, align 1
  %90 = sext i8 %89 to i32
  %91 = icmp eq i32 %90, 95
  br i1 %91, label %102, label %92

92:                                               ; preds = %87
  %93 = load i8*, i8** %4, align 8
  %94 = load i8, i8* %93, align 1
  %95 = sext i8 %94 to i32
  %96 = icmp sle i32 48, %95
  br i1 %96, label %97, label %103

97:                                               ; preds = %92
  %98 = load i8*, i8** %4, align 8
  %99 = load i8, i8* %98, align 1
  %100 = sext i8 %99 to i32
  %101 = icmp sle i32 %100, 57
  br i1 %101, label %102, label %103

102:                                              ; preds = %97, %87, %82, %72
  store i32 1, i32* %5, align 4
  br label %104

103:                                              ; preds = %97, %92
  store i32 0, i32* %5, align 4
  br label %104

104:                                              ; preds = %103, %102
  br label %105

105:                                              ; preds = %104
  %106 = load i8*, i8** %4, align 8
  %107 = getelementptr inbounds i8, i8* %106, i32 1
  store i8* %107, i8** %4, align 8
  br label %57

108:                                              ; preds = %65
  br label %110

109:                                              ; preds = %49
  store i32 0, i32* %5, align 4
  br label %110

110:                                              ; preds = %109, %108
  %111 = load i32, i32* %5, align 4
  %112 = call i32 (i8*, ...) @printf(i8* getelementptr inbounds ([4 x i8], [4 x i8]* @.str, i64 0, i64 0), i32 %111)
  br label %113

113:                                              ; preds = %110
  %114 = load i32, i32* %3, align 4
  %115 = add nsw i32 %114, 1
  store i32 %115, i32* %3, align 4
  br label %21

116:                                              ; preds = %21
  ret void
}

declare dso_local i32 @__isoc99_scanf(i8*, ...) #1

declare dso_local i32 @gets(...) #1

declare dso_local i32 @printf(i8*, ...) #1


!llvm.module.flags = !{!0}
!llvm.ident = !{!1}

!0 = !{i32 1, !"wchar_size", i32 4}
!1 = !{!"clang version 10.0.0-4ubuntu1 "}
