; ModuleID = 'source-C-CXX/57/72.c'
source_filename = "source-C-CXX/57/72.c"
target datalayout = "e-m:e-p270:32:32-p271:32:32-p272:64:64-i64:64-f80:128-n8:16:32:64-S128"
target triple = "x86_64-pc-linux-gnu"

@.str = private unnamed_addr constant [4 x i8] c"%d\0A\00", align 1

; Function Attrs: nounwind sspstrong uwtable
define dso_local void @main() local_unnamed_addr #0 {
  %1 = alloca i32, align 4
  %2 = alloca [100 x [200 x i8]], align 16
  %3 = bitcast i32* %1 to i8*
  call void @llvm.lifetime.start.p0i8(i64 4, i8* nonnull %3) #4
  %4 = call i32 (i8*, ...) @__isoc99_scanf(i8* getelementptr inbounds ([4 x i8], [4 x i8]* @.str, i64 0, i64 0), i32* nonnull %1)
  %5 = getelementptr inbounds [100 x [200 x i8]], [100 x [200 x i8]]* %2, i64 0, i64 0, i64 0
  call void @llvm.lifetime.start.p0i8(i64 20000, i8* nonnull %5) #4
  %6 = load i32, i32* %1, align 4, !tbaa !5
  %7 = icmp sgt i32 %6, 0
  br i1 %7, label %10, label %61

8:                                                ; preds = %10
  %9 = icmp sgt i32 %15, 0
  br i1 %9, label %18, label %61

10:                                               ; preds = %0, %10
  %11 = phi i64 [ %14, %10 ], [ 0, %0 ]
  %12 = getelementptr inbounds [100 x [200 x i8]], [100 x [200 x i8]]* %2, i64 0, i64 %11, i64 0
  %13 = call i32 (i8*, ...) bitcast (i32 (...)* @gets to i32 (i8*, ...)*)(i8* nonnull %12) #4
  %14 = add nuw nsw i64 %11, 1
  %15 = load i32, i32* %1, align 4, !tbaa !5
  %16 = sext i32 %15 to i64
  %17 = icmp slt i64 %14, %16
  br i1 %17, label %10, label %8, !llvm.loop !9

18:                                               ; preds = %8, %54
  %19 = phi i64 [ %57, %54 ], [ 0, %8 ]
  %20 = getelementptr inbounds [100 x [200 x i8]], [100 x [200 x i8]]* %2, i64 0, i64 %19, i64 0
  %21 = load i8, i8* %20, align 8, !tbaa !11
  %22 = add i8 %21, -65
  %23 = icmp ult i8 %22, 26
  br i1 %23, label %29, label %24

24:                                               ; preds = %18
  %25 = add i8 %21, -97
  %26 = icmp ult i8 %25, 26
  %27 = icmp eq i8 %21, 95
  %28 = or i1 %27, %26
  br i1 %28, label %29, label %54

29:                                               ; preds = %24, %18
  %30 = getelementptr inbounds [100 x [200 x i8]], [100 x [200 x i8]]* %2, i64 0, i64 %19, i64 1
  %31 = load i8, i8* %30, align 1, !tbaa !11
  %32 = icmp eq i8 %31, 0
  br i1 %32, label %54, label %33

33:                                               ; preds = %29, %47
  %34 = phi i8 [ %50, %47 ], [ %31, %29 ]
  %35 = phi i8* [ %49, %47 ], [ %30, %29 ]
  %36 = add i8 %34, -65
  %37 = icmp ult i8 %36, 26
  br i1 %37, label %47, label %38

38:                                               ; preds = %33
  %39 = add i8 %34, -97
  %40 = icmp ult i8 %39, 26
  %41 = icmp eq i8 %34, 95
  %42 = or i1 %41, %40
  br i1 %42, label %47, label %43

43:                                               ; preds = %38
  %44 = add i8 %34, -48
  %45 = icmp ult i8 %44, 10
  %46 = zext i1 %45 to i32
  br label %47

47:                                               ; preds = %43, %33, %38
  %48 = phi i32 [ 1, %38 ], [ 1, %33 ], [ %46, %43 ]
  %49 = getelementptr inbounds i8, i8* %35, i64 1
  %50 = load i8, i8* %49, align 1, !tbaa !11
  %51 = icmp ne i8 %50, 0
  %52 = icmp eq i32 %48, 1
  %53 = and i1 %52, %51
  br i1 %53, label %33, label %54, !llvm.loop !12

54:                                               ; preds = %47, %29, %24
  %55 = phi i32 [ 0, %24 ], [ 1, %29 ], [ %48, %47 ]
  %56 = call i32 (i8*, ...) @printf(i8* nonnull dereferenceable(1) getelementptr inbounds ([4 x i8], [4 x i8]* @.str, i64 0, i64 0), i32 %55)
  %57 = add nuw nsw i64 %19, 1
  %58 = load i32, i32* %1, align 4, !tbaa !5
  %59 = sext i32 %58 to i64
  %60 = icmp slt i64 %57, %59
  br i1 %60, label %18, label %61, !llvm.loop !13

61:                                               ; preds = %54, %0, %8
  call void @llvm.lifetime.end.p0i8(i64 20000, i8* nonnull %5) #4
  call void @llvm.lifetime.end.p0i8(i64 4, i8* nonnull %3) #4
  ret void
}

; Function Attrs: argmemonly mustprogress nofree nosync nounwind willreturn
declare void @llvm.lifetime.start.p0i8(i64 immarg, i8* nocapture) #1

; Function Attrs: nofree nounwind
declare noundef i32 @__isoc99_scanf(i8* nocapture noundef readonly, ...) local_unnamed_addr #2

declare i32 @gets(...) local_unnamed_addr #3

; Function Attrs: nofree nounwind
declare noundef i32 @printf(i8* nocapture noundef readonly, ...) local_unnamed_addr #2

; Function Attrs: argmemonly mustprogress nofree nosync nounwind willreturn
declare void @llvm.lifetime.end.p0i8(i64 immarg, i8* nocapture) #1


!llvm.module.flags = !{!0, !1, !2, !3}
!llvm.ident = !{!4}

!0 = !{i32 1, !"wchar_size", i32 4}
!1 = !{i32 7, !"PIC Level", i32 2}
!2 = !{i32 7, !"PIE Level", i32 2}
!3 = !{i32 7, !"uwtable", i32 1}
!4 = !{!"clang version 13.0.0"}
!5 = !{!6, !6, i64 0}
!6 = !{!"int", !7, i64 0}
!7 = !{!"omnipotent char", !8, i64 0}
!8 = !{!"Simple C/C++ TBAA"}
!9 = distinct !{!9, !10}
!10 = !{!"llvm.loop.mustprogress"}
!11 = !{!7, !7, i64 0}
!12 = distinct !{!12, !10}
!13 = distinct !{!13, !10}
